; Function Attrs: nounwind uwtable
define noalias nonnull ptr @l_Lean_Meta_PProdN_reduceProjs___lambda__1___boxed(ptr noundef %0, ptr noundef %1, ptr noundef %2, ptr noundef %3) #0 {
  %5 = load ptr, ptr @l_Lean_Meta_PProdN_reduceProjs___lambda__1___closed__1, align 8, !tbaa !10
  tail call void @lean_inc_heartbeat() #4
  %6 = tail call noalias ptr @mi_malloc_small(i64 noundef 24) #4
  %7 = icmp eq ptr %6, null
  br i1 %7, label %8, label %l_Lean_Meta_PProdN_reduceProjs___lambda__1.exit

8:                                                ; preds = %4
  tail call void @lean_internal_panic_out_of_memory() #5
  unreachable

l_Lean_Meta_PProdN_reduceProjs___lambda__1.exit:  ; preds = %4
  %9 = getelementptr inbounds nuw i8, ptr %6, i64 4
  store i32 1, ptr %6, align 4, !tbaa !4
  store i32 131096, ptr %9, align 4
  %10 = getelementptr inbounds nuw i8, ptr %6, i64 8
  store ptr %5, ptr %10, align 8, !tbaa !10
  %11 = getelementptr inbounds nuw i8, ptr %6, i64 16
  store ptr %3, ptr %11, align 8, !tbaa !10
  %12 = ptrtoint ptr %2 to i64
  %13 = and i64 %12, 1
  %.not = icmp eq i64 %13, 0
  br i1 %.not, label %14, label %lean_dec.exit13

14:                                               ; preds = %l_Lean_Meta_PProdN_reduceProjs___lambda__1.exit
  %15 = load i32, ptr %2, align 4, !tbaa !4
  %16 = icmp sgt i32 %15, 1
  br i1 %16, label %17, label %19, !prof !9

17:                                               ; preds = %14
  %18 = add nsw i32 %15, -1
  store i32 %18, ptr %2, align 4, !tbaa !4
  br label %lean_dec.exit13

19:                                               ; preds = %14
  %.not.i.i11 = icmp eq i32 %15, 0
  br i1 %.not.i.i11, label %lean_dec.exit13, label %20

20:                                               ; preds = %19
  tail call void @lean_dec_ref_cold(ptr noundef nonnull %2) #4
  br label %lean_dec.exit13

lean_dec.exit13:                                  ; preds = %17, %19, %20, %l_Lean_Meta_PProdN_reduceProjs___lambda__1.exit
  %21 = ptrtoint ptr %1 to i64
  %22 = and i64 %21, 1
  %.not14 = icmp eq i64 %22, 0
  br i1 %.not14, label %23, label %lean_dec.exit10

23:                                               ; preds = %lean_dec.exit13
  %24 = load i32, ptr %1, align 4, !tbaa !4
  %25 = icmp sgt i32 %24, 1
  br i1 %25, label %26, label %28, !prof !9

26:                                               ; preds = %23
  %27 = add nsw i32 %24, -1
  store i32 %27, ptr %1, align 4, !tbaa !4
  br label %lean_dec.exit10

28:                                               ; preds = %23
  %.not.i.i8 = icmp eq i32 %24, 0
  br i1 %.not.i.i8, label %lean_dec.exit10, label %29

29:                                               ; preds = %28
  tail call void @lean_dec_ref_cold(ptr noundef nonnull %1) #4
  br label %lean_dec.exit10

lean_dec.exit10:                                  ; preds = %26, %28, %29, %lean_dec.exit13
  %30 = ptrtoint ptr %0 to i64
  %31 = and i64 %30, 1
  %.not15 = icmp eq i64 %31, 0
  br i1 %.not15, label %32, label %lean_dec.exit

32:                                               ; preds = %lean_dec.exit10
  %33 = load i32, ptr %0, align 4, !tbaa !4
  %34 = icmp sgt i32 %33, 1
  br i1 %34, label %35, label %37, !prof !9

35:                                               ; preds = %32
  %36 = add nsw i32 %33, -1
  store i32 %36, ptr %0, align 4, !tbaa !4
  br label %lean_dec.exit

37:                                               ; preds = %32
  %.not.i.i = icmp eq i32 %33, 0
  br i1 %.not.i.i, label %lean_dec.exit, label %38

38:                                               ; preds = %37
  tail call void @lean_dec_ref_cold(ptr noundef nonnull %0) #4
  br label %lean_dec.exit

lean_dec.exit:                                    ; preds = %35, %37, %38, %lean_dec.exit10
  ret ptr %6
}